; Function Attrs: mustprogress nofree norecurse nosync nounwind willreturn memory(read, argmem: readwrite, inaccessiblemem: none) uwtable
define noundef i32 @H5HF__dtable_lookup(ptr noundef readonly captures(none) %0, i64 noundef %1, ptr noundef writeonly captures(none) %2, ptr noundef writeonly captures(none) %3) local_unnamed_addr #3 {
  %5 = load i8, ptr @H5HF_init_g, align 1, !tbaa !3, !range !7, !noundef !8
  %6 = trunc nuw i8 %5 to i1
  %7 = load i8, ptr @H5_libterm_g, align 1, !range !7
  %8 = trunc nuw i8 %7 to i1
  %9 = xor i1 %8, true
  %10 = select i1 %6, i1 true, i1 %9
  br i1 %10, label %11, label %85, !prof !9

11:                                               ; preds = %4
  %12 = getelementptr inbounds nuw i8, ptr %0, i64 72
  %13 = load i64, ptr %12, align 8, !tbaa !26
  %14 = icmp ult i64 %1, %13
  br i1 %14, label %15, label %19

15:                                               ; preds = %11
  store i32 0, ptr %2, align 4, !tbaa !17
  %16 = getelementptr inbounds nuw i8, ptr %0, i64 8
  %17 = load i64, ptr %16, align 8, !tbaa !10
  %18 = udiv i64 %1, %17
  br label %.sink.split

19:                                               ; preds = %11
  %20 = lshr i64 %1, 32
  %.not.i = icmp ult i64 %1, 4294967296
  br i1 %.not.i, label %47, label %21

21:                                               ; preds = %19
  %22 = lshr i64 %1, 48
  %.not26.i = icmp ult i64 %1, 281474976710656
  br i1 %.not26.i, label %35, label %23

23:                                               ; preds = %21
  %.not28.i = icmp ult i64 %1, 72057594037927936
  br i1 %.not28.i, label %30, label %24

24:                                               ; preds = %23
  %25 = lshr i64 %1, 56
  %26 = getelementptr inbounds nuw [256 x i8], ptr @LogTable256, i64 0, i64 %25
  %27 = load i8, ptr %26, align 1, !tbaa !35
  %28 = zext i8 %27 to i32
  %29 = add nuw nsw i32 %28, 56
  br label %H5VM_log2_gen.exit

30:                                               ; preds = %23
  %31 = getelementptr inbounds nuw [256 x i8], ptr @LogTable256, i64 0, i64 %22
  %32 = load i8, ptr %31, align 1, !tbaa !35
  %33 = zext i8 %32 to i32
  %34 = add nuw nsw i32 %33, 48
  br label %H5VM_log2_gen.exit

35:                                               ; preds = %21
  %.not27.i = icmp samesign ult i64 %1, 1099511627776
  br i1 %.not27.i, label %42, label %36

36:                                               ; preds = %35
  %37 = lshr i64 %1, 40
  %38 = getelementptr inbounds nuw [256 x i8], ptr @LogTable256, i64 0, i64 %37
  %39 = load i8, ptr %38, align 1, !tbaa !35
  %40 = zext i8 %39 to i32
  %41 = add nuw nsw i32 %40, 40
  br label %H5VM_log2_gen.exit

42:                                               ; preds = %35
  %43 = getelementptr inbounds nuw [256 x i8], ptr @LogTable256, i64 0, i64 %20
  %44 = load i8, ptr %43, align 1, !tbaa !35
  %45 = zext i8 %44 to i32
  %46 = add nuw nsw i32 %45, 32
  br label %H5VM_log2_gen.exit

47:                                               ; preds = %19
  %48 = lshr i64 %1, 16
  %.not23.i = icmp samesign ult i64 %1, 65536
  br i1 %.not23.i, label %61, label %49

49:                                               ; preds = %47
  %.not25.i = icmp samesign ult i64 %1, 16777216
  br i1 %.not25.i, label %56, label %50

50:                                               ; preds = %49
  %51 = lshr i64 %1, 24
  %52 = getelementptr inbounds nuw [256 x i8], ptr @LogTable256, i64 0, i64 %51
  %53 = load i8, ptr %52, align 1, !tbaa !35
  %54 = zext i8 %53 to i32
  %55 = add nuw nsw i32 %54, 24
  br label %H5VM_log2_gen.exit

56:                                               ; preds = %49
  %57 = getelementptr inbounds nuw [256 x i8], ptr @LogTable256, i64 0, i64 %48
  %58 = load i8, ptr %57, align 1, !tbaa !35
  %59 = zext i8 %58 to i32
  %60 = add nuw nsw i32 %59, 16
  br label %H5VM_log2_gen.exit

61:                                               ; preds = %47
  %.not24.i = icmp samesign ult i64 %1, 256
  br i1 %.not24.i, label %68, label %62

62:                                               ; preds = %61
  %63 = lshr i64 %1, 8
  %64 = getelementptr inbounds nuw [256 x i8], ptr @LogTable256, i64 0, i64 %63
  %65 = load i8, ptr %64, align 1, !tbaa !35
  %66 = zext i8 %65 to i32
  %67 = add nuw nsw i32 %66, 8
  br label %H5VM_log2_gen.exit

68:                                               ; preds = %61
  %69 = getelementptr inbounds nuw [256 x i8], ptr @LogTable256, i64 0, i64 %1
  %70 = load i8, ptr %69, align 1, !tbaa !35
  %71 = zext i8 %70 to i32
  br label %H5VM_log2_gen.exit

H5VM_log2_gen.exit:                               ; preds = %24, %30, %36, %42, %50, %56, %62, %68
  %.0.i = phi i32 [ %29, %24 ], [ %34, %30 ], [ %41, %36 ], [ %46, %42 ], [ %55, %50 ], [ %60, %56 ], [ %67, %62 ], [ %71, %68 ]
  %72 = zext nneg i32 %.0.i to i64
  %.neg = shl nsw i64 -1, %72
  %73 = getelementptr inbounds nuw i8, ptr %0, i64 64
  %74 = load i32, ptr %73, align 8, !tbaa !20
  %75 = sub i32 %.0.i, %74
  %76 = add i32 %75, 1
  store i32 %76, ptr %2, align 4, !tbaa !17
  %77 = add i64 %.neg, %1
  %78 = getelementptr inbounds nuw i8, ptr %0, i64 80
  %79 = load ptr, ptr %78, align 8, !tbaa !28
  %80 = zext i32 %76 to i64
  %81 = getelementptr inbounds nuw i64, ptr %79, i64 %80
  %82 = load i64, ptr %81, align 8, !tbaa !29
  %83 = udiv i64 %77, %82
  br label %.sink.split

.sink.split:                                      ; preds = %H5VM_log2_gen.exit, %15
  %.sink15 = phi i64 [ %18, %15 ], [ %83, %H5VM_log2_gen.exit ]
  %84 = trunc i64 %.sink15 to i32
  store i32 %84, ptr %3, align 4, !tbaa !17
  br label %85

85:                                               ; preds = %.sink.split, %4
  ret i32 0
}